target datalayout = "e-m:e-p270:32:32-p271:32:32-p272:64:64-i64:64-i128:128-f80:128-n8:16:32:64-S128"
target triple = "x86_64-pc-linux-gnu"

%struct.pmix_class_t = type { ptr, ptr, ptr, ptr, i32, i32, ptr, ptr, i64 }
%struct.pmix_tma = type { ptr, ptr, ptr, ptr, ptr, ptr, ptr, ptr }
%union.pthread_mutex_t = type { %struct.__pthread_mutex_s }
%struct.__pthread_mutex_s = type { i32, i32, i32, i32, i32, i16, i16, %struct.__pthread_internal_list }
%struct.__pthread_internal_list = type { ptr, ptr }
%union.pthread_cond_t = type { %struct.__pthread_cond_s }
%struct.__pthread_cond_s = type { %union.__atomic_wide_counter, %union.__atomic_wide_counter, [2 x i32], [2 x i32], i32, i32, [2 x i32] }
%union.__atomic_wide_counter = type { i64 }
%struct.pmix_proc = type { [256 x i8], i32 }
%struct.pmix_object_t = type { %union.pthread_mutex_t, ptr, i32, %struct.pmix_tma }
%struct.timeval = type { i64, i64 }
%struct.event = type { %struct.event_callback, %union.anon.3, i32, ptr, %union.anon.5, i16, i16, %struct.timeval }
%struct.event_callback = type { %struct.anon.1, i16, i8, i8, %union.anon.2, ptr }
%struct.anon.1 = type { ptr, ptr }
%union.anon.2 = type { ptr }
%union.anon.3 = type { %struct.anon.4 }
%struct.anon.4 = type { ptr, ptr }
%union.anon.5 = type { %struct.anon.6 }
%struct.anon.6 = type { %struct.anon.7, %struct.timeval }
%struct.anon.7 = type { ptr, ptr }
%struct.pmix_lock_t = type { i32, %struct.pmix_mutex_t, %union.pthread_cond_t, i8 }
%struct.pmix_mutex_t = type { %struct.pmix_object_t, %union.pthread_mutex_t }
%struct.pmix_notify_caddy_t = type { %struct.pmix_object_t, %struct.event, %struct.pmix_lock_t, i64, i32, i32, %struct.pmix_proc, i8, i8, ptr, i64, i64, ptr, i64, i8, ptr, i64, ptr, ptr, ptr }

; Function Attrs: inlinehint nounwind uwtable
define internal void @pmix_obj_run_destructors(ptr noundef %0) #2 {
  %2 = alloca ptr, align 8
  %3 = alloca ptr, align 8
  store ptr %0, ptr %2, align 8, !tbaa !20
  call void @llvm.lifetime.start.p0(i64 8, ptr %3) #13
  %4 = load ptr, ptr %2, align 8, !tbaa !20
  %5 = getelementptr inbounds nuw %struct.pmix_object_t, ptr %4, i32 0, i32 1
  %6 = load ptr, ptr %5, align 8, !tbaa !14
  %7 = getelementptr inbounds nuw %struct.pmix_class_t, ptr %6, i32 0, i32 7
  %8 = load ptr, ptr %7, align 8, !tbaa !283
  store ptr %8, ptr %3, align 8, !tbaa !3
  br label %9

9:                                                ; preds = %13, %1
  %10 = load ptr, ptr %3, align 8, !tbaa !3
  %11 = load ptr, ptr %10, align 8, !tbaa !3
  %12 = icmp ne ptr null, %11
  br i1 %12, label %13, label %19

13:                                               ; preds = %9
  %14 = load ptr, ptr %3, align 8, !tbaa !3
  %15 = load ptr, ptr %14, align 8, !tbaa !3
  %16 = load ptr, ptr %2, align 8, !tbaa !20
  call void %15(ptr noundef %16)
  %17 = load ptr, ptr %3, align 8, !tbaa !3
  %18 = getelementptr inbounds nuw ptr, ptr %17, i32 1
  store ptr %18, ptr %3, align 8, !tbaa !3
  br label %9, !llvm.loop !284

19:                                               ; preds = %9
  call void @llvm.lifetime.end.p0(i64 8, ptr %3) #13
  ret void
}

; Function Attrs: nounwind uwtable
define internal void @ndes(ptr noundef %0) #0 {
  %2 = alloca ptr, align 8
  store ptr %0, ptr %2, align 8, !tbaa !3
  br label %3

3:                                                ; preds = %1
  br label %4

4:                                                ; preds = %3
  %5 = load ptr, ptr %2, align 8, !tbaa !3
  %6 = getelementptr inbounds nuw %struct.pmix_notify_caddy_t, ptr %5, i32 0, i32 2
  %7 = getelementptr inbounds nuw %struct.pmix_lock_t, ptr %6, i32 0, i32 1
  call void @pmix_obj_run_destructors(ptr noundef %7)
  br label %8

8:                                                ; preds = %4
  %9 = load ptr, ptr %2, align 8, !tbaa !3
  %10 = getelementptr inbounds nuw %struct.pmix_notify_caddy_t, ptr %9, i32 0, i32 2
  %11 = getelementptr inbounds nuw %struct.pmix_lock_t, ptr %10, i32 0, i32 2
  %12 = call i32 @pthread_cond_destroy(ptr noundef %11) #13
  br label %13

13:                                               ; preds = %8
  %14 = load ptr, ptr %2, align 8, !tbaa !3
  %15 = getelementptr inbounds nuw %struct.pmix_notify_caddy_t, ptr %14, i32 0, i32 15
  %16 = load ptr, ptr %15, align 8, !tbaa !241
  %17 = icmp ne ptr null, %16
  br i1 %17, label %18, label %29

18:                                               ; preds = %13
  br label %19

19:                                               ; preds = %18
  %20 = load ptr, ptr %2, align 8, !tbaa !3
  %21 = getelementptr inbounds nuw %struct.pmix_notify_caddy_t, ptr %20, i32 0, i32 15
  %22 = load ptr, ptr %21, align 8, !tbaa !241
  %23 = load ptr, ptr %2, align 8, !tbaa !3
  %24 = getelementptr inbounds nuw %struct.pmix_notify_caddy_t, ptr %23, i32 0, i32 16
  %25 = load i64, ptr %24, align 8, !tbaa !242
  call void @PMIx_Info_free(ptr noundef %22, i64 noundef %25)
  %26 = load ptr, ptr %2, align 8, !tbaa !3
  %27 = getelementptr inbounds nuw %struct.pmix_notify_caddy_t, ptr %26, i32 0, i32 15
  store ptr null, ptr %27, align 8, !tbaa !241
  br label %28

28:                                               ; preds = %19
  br label %29

29:                                               ; preds = %28, %13
  br label %30

30:                                               ; preds = %29
  %31 = load ptr, ptr %2, align 8, !tbaa !3
  %32 = getelementptr inbounds nuw %struct.pmix_notify_caddy_t, ptr %31, i32 0, i32 12
  %33 = load ptr, ptr %32, align 8, !tbaa !238
  %34 = load ptr, ptr %2, align 8, !tbaa !3
  %35 = getelementptr inbounds nuw %struct.pmix_notify_caddy_t, ptr %34, i32 0, i32 13
  %36 = load i64, ptr %35, align 8, !tbaa !239
  call void @PMIx_Proc_free(ptr noundef %33, i64 noundef %36)
  %37 = load ptr, ptr %2, align 8, !tbaa !3
  %38 = getelementptr inbounds nuw %struct.pmix_notify_caddy_t, ptr %37, i32 0, i32 12
  store ptr null, ptr %38, align 8, !tbaa !238
  br label %39

39:                                               ; preds = %30
  %40 = load ptr, ptr %2, align 8, !tbaa !3
  %41 = getelementptr inbounds nuw %struct.pmix_notify_caddy_t, ptr %40, i32 0, i32 9
  %42 = load ptr, ptr %41, align 8, !tbaa !235
  %43 = icmp ne ptr null, %42
  br i1 %43, label %44, label %48

44:                                               ; preds = %39
  %45 = load ptr, ptr %2, align 8, !tbaa !3
  %46 = getelementptr inbounds nuw %struct.pmix_notify_caddy_t, ptr %45, i32 0, i32 9
  %47 = load ptr, ptr %46, align 8, !tbaa !235
  call void @free(ptr noundef %47) #13
  br label %48

48:                                               ; preds = %44, %39
  ret void
}