; Function Attrs: nounwind uwtable
define internal void @ndes(ptr noundef %0) #0 {
  %2 = getelementptr inbounds nuw i8, ptr %0, i64 256
  %3 = getelementptr inbounds nuw i8, ptr %0, i64 296
  %4 = load ptr, ptr %3, align 8, !tbaa !13
  %5 = getelementptr inbounds nuw i8, ptr %4, i64 48
  %6 = load ptr, ptr %5, align 8, !tbaa !28
  %7 = load ptr, ptr %6, align 8, !tbaa !18
  %.not6.i = icmp eq ptr %7, null
  br i1 %.not6.i, label %pmix_obj_run_destructors.exit, label %.lr.ph.i

.lr.ph.i:                                         ; preds = %1, %.lr.ph.i
  %8 = phi ptr [ %10, %.lr.ph.i ], [ %7, %1 ]
  %.07.i = phi ptr [ %9, %.lr.ph.i ], [ %6, %1 ]
  tail call void %8(ptr noundef nonnull %2) #15
  %9 = getelementptr inbounds nuw i8, ptr %.07.i, i64 8
  %10 = load ptr, ptr %9, align 8, !tbaa !18
  %.not.i = icmp eq ptr %10, null
  br i1 %.not.i, label %pmix_obj_run_destructors.exit, label %.lr.ph.i, !llvm.loop !29

pmix_obj_run_destructors.exit:                    ; preds = %.lr.ph.i, %1
  %11 = getelementptr inbounds nuw i8, ptr %0, i64 416
  %12 = tail call i32 @pthread_cond_destroy(ptr noundef nonnull %11) #15
  %13 = getelementptr inbounds nuw i8, ptr %0, i64 800
  %14 = load ptr, ptr %13, align 8, !tbaa !191
  %.not = icmp eq ptr %14, null
  br i1 %.not, label %18, label %15

15:                                               ; preds = %pmix_obj_run_destructors.exit
  %16 = getelementptr inbounds nuw i8, ptr %0, i64 808
  %17 = load i64, ptr %16, align 8, !tbaa !192
  tail call void @PMIx_Info_free(ptr noundef nonnull %14, i64 noundef %17) #15
  store ptr null, ptr %13, align 8, !tbaa !191
  br label %18

18:                                               ; preds = %pmix_obj_run_destructors.exit, %15
  %19 = getelementptr inbounds nuw i8, ptr %0, i64 776
  %20 = load ptr, ptr %19, align 8, !tbaa !193
  %21 = getelementptr inbounds nuw i8, ptr %0, i64 784
  %22 = load i64, ptr %21, align 8, !tbaa !194
  tail call void @PMIx_Proc_free(ptr noundef %20, i64 noundef %22) #15
  store ptr null, ptr %19, align 8, !tbaa !193
  %23 = getelementptr inbounds nuw i8, ptr %0, i64 752
  %24 = load ptr, ptr %23, align 8, !tbaa !195
  %.not12 = icmp eq ptr %24, null
  br i1 %.not12, label %26, label %25

25:                                               ; preds = %18
  tail call void @free(ptr noundef nonnull %24) #15
  br label %26

26:                                               ; preds = %25, %18
  ret void
}